target datalayout = "e-m:e-p270:32:32-p271:32:32-p272:64:64-i64:64-i128:128-f80:128-n8:16:32:64-S128"
target triple = "x86_64-pc-linux-gnu"

%struct.import_error_callback_arg = type { ptr, ptr }

@.str.39 = private unnamed_addr constant [29 x i8] c"importing foreign table \22%s\22\00", align 1

; Function Attrs: nounwind uwtable
define internal void @import_error_callback(ptr noundef %0) #0 {
  %2 = alloca ptr, align 8
  %3 = alloca ptr, align 8
  %4 = alloca i32, align 4
  store ptr %0, ptr %2, align 8
  call void @llvm.lifetime.start.p0(i64 8, ptr %3) #9
  %5 = load ptr, ptr %2, align 8
  store ptr %5, ptr %3, align 8
  call void @llvm.lifetime.start.p0(i64 4, ptr %4) #9
  %6 = call i32 @geterrposition()
  store i32 %6, ptr %4, align 4
  %7 = load i32, ptr %4, align 4
  %8 = icmp sgt i32 %7, 0
  br i1 %8, label %9, label %17

9:                                                ; preds = %1
  %10 = call i32 @errposition(i32 noundef 0)
  %11 = load i32, ptr %4, align 4
  %12 = call i32 @internalerrposition(i32 noundef %11)
  %13 = load ptr, ptr %3, align 8
  %14 = getelementptr inbounds nuw %struct.import_error_callback_arg, ptr %13, i32 0, i32 1
  %15 = load ptr, ptr %14, align 8
  %16 = call i32 @internalerrquery(ptr noundef %15)
  br label %17

17:                                               ; preds = %9, %1
  %18 = load ptr, ptr %3, align 8
  %19 = getelementptr inbounds nuw %struct.import_error_callback_arg, ptr %18, i32 0, i32 0
  %20 = load ptr, ptr %19, align 8
  %21 = icmp ne ptr %20, null
  br i1 %21, label %22, label %28

22:                                               ; preds = %17
  %23 = call i32 @set_errcontext_domain(ptr noundef null)
  %24 = load ptr, ptr %3, align 8
  %25 = getelementptr inbounds nuw %struct.import_error_callback_arg, ptr %24, i32 0, i32 0
  %26 = load ptr, ptr %25, align 8
  %27 = call i32 (ptr, ...) @errcontext_msg(ptr noundef @.str.39, ptr noundef %26)
  br label %28

28:                                               ; preds = %22, %17
  call void @llvm.lifetime.end.p0(i64 4, ptr %4) #9
  call void @llvm.lifetime.end.p0(i64 8, ptr %3) #9
  ret void
}