; Function Attrs: nounwind uwtable
define internal void @import_error_callback(ptr noundef readonly captures(none) %0) #0 {
  %2 = tail call i32 @geterrposition() #9
  %3 = icmp sgt i32 %2, 0
  br i1 %3, label %4, label %10

4:                                                ; preds = %1
  %5 = tail call i32 @errposition(i32 noundef 0) #9
  %6 = tail call i32 @internalerrposition(i32 noundef %2) #9
  %7 = getelementptr inbounds nuw i8, ptr %0, i64 8
  %8 = load ptr, ptr %7, align 8
  %9 = tail call i32 @internalerrquery(ptr noundef %8) #9
  br label %10

10:                                               ; preds = %4, %1
  %11 = load ptr, ptr %0, align 8
  %.not = icmp eq ptr %11, null
  br i1 %.not, label %16, label %12

12:                                               ; preds = %10
  %13 = tail call i32 @set_errcontext_domain(ptr noundef null) #9
  %14 = load ptr, ptr %0, align 8
  %15 = tail call i32 (ptr, ...) @errcontext_msg(ptr noundef nonnull @.str.39, ptr noundef %14) #9
  br label %16

16:                                               ; preds = %12, %10
  ret void
}